target datalayout = "e-m:e-p270:32:32-p271:32:32-p272:64:64-i64:64-i128:128-f80:128-n8:16:32:64-S128"
target triple = "x86_64-pc-linux-gnu"

@hf_cmee = internal global i32 0, align 4

; Function Attrs: alwaysinline nounwind
define internal ptr @memcpy.inline(ptr noalias %0, ptr noalias %1, i64 %2) #5 {
  %4 = alloca ptr, align 8
  %5 = alloca ptr, align 8
  %6 = alloca i64, align 8
  store ptr %0, ptr %4, align 8
  store ptr %1, ptr %5, align 8
  store i64 %2, ptr %6, align 8
  %7 = load ptr, ptr %4, align 8
  %8 = load ptr, ptr %5, align 8
  %9 = load i64, ptr %6, align 8
  %10 = load ptr, ptr %4, align 8
  %11 = call i64 @llvm.objectsize.i64.p0(ptr %10, i1 false, i1 true, i1 true)
  %12 = call ptr @__memcpy_chk(ptr noundef %7, ptr noundef %8, i64 noundef %9, i64 noundef %11) #11
  ret ptr %12
}

; Function Attrs: null_pointer_is_valid sspstrong uwtable
define internal i32 @get_uint_parameter(ptr noundef %0, i32 noundef %1) #0 {
  %3 = alloca ptr, align 8
  %4 = alloca i32, align 4
  %5 = alloca i32, align 4
  %6 = alloca ptr, align 8
  store ptr %0, ptr %3, align 8
  store i32 %1, ptr %4, align 4
  call void @llvm.lifetime.start.p0(i64 4, ptr %5) #11
  call void @llvm.lifetime.start.p0(i64 8, ptr %6) #11
  %7 = call ptr @wmem_packet_scope()
  %8 = load i32, ptr %4, align 4
  %9 = add i32 %8, 1
  %10 = sext i32 %9 to i64
  %11 = call noalias ptr @wmem_alloc(ptr noundef %7, i64 noundef %10) #12
  store ptr %11, ptr %6, align 8
  %12 = load ptr, ptr %6, align 8
  %13 = load ptr, ptr %3, align 8
  %14 = load i32, ptr %4, align 4
  %15 = sext i32 %14 to i64
  %16 = call ptr @memcpy.inline(ptr noundef %12, ptr noundef %13, i64 noundef %15) #11
  %17 = load ptr, ptr %6, align 8
  %18 = load i32, ptr %4, align 4
  %19 = sext i32 %18 to i64
  %20 = getelementptr i8, ptr %17, i64 %19
  store i8 0, ptr %20, align 1
  %21 = load ptr, ptr %6, align 8
  %22 = call i64 @g_ascii_strtoull(ptr noundef %21, ptr noundef null, i32 noundef 10)
  %23 = trunc i64 %22 to i32
  store i32 %23, ptr %5, align 4
  %24 = load i32, ptr %5, align 4
  call void @llvm.lifetime.end.p0(i64 8, ptr %6) #11
  call void @llvm.lifetime.end.p0(i64 4, ptr %5) #11
  ret i32 %24
}

; Function Attrs: null_pointer_is_valid sspstrong uwtable
define internal zeroext i1 @dissect_cmee_parameter(ptr noundef %0, ptr noundef %1, ptr noundef %2, i32 noundef %3, i32 noundef %4, i16 noundef zeroext %5, ptr noundef %6, i32 noundef %7, i32 noundef %8, ptr noundef %9) #0 {
  %11 = alloca i1, align 1
  %12 = alloca ptr, align 8
  %13 = alloca ptr, align 8
  %14 = alloca ptr, align 8
  %15 = alloca i32, align 4
  %16 = alloca i32, align 4
  %17 = alloca i16, align 2
  %18 = alloca ptr, align 8
  %19 = alloca i32, align 4
  %20 = alloca i32, align 4
  %21 = alloca ptr, align 8
  %22 = alloca i32, align 4
  %23 = alloca i32, align 4
  store ptr %0, ptr %12, align 8
  store ptr %1, ptr %13, align 8
  store ptr %2, ptr %14, align 8
  store i32 %3, ptr %15, align 4
  store i32 %4, ptr %16, align 4
  store i16 %5, ptr %17, align 2
  store ptr %6, ptr %18, align 8
  store i32 %7, ptr %19, align 4
  store i32 %8, ptr %20, align 4
  store ptr %9, ptr %21, align 8
  call void @llvm.lifetime.start.p0(i64 4, ptr %22) #11
  %24 = load i32, ptr %16, align 4
  %25 = icmp eq i32 %24, 2
  br i1 %25, label %26, label %30

26:                                               ; preds = %10
  %27 = load i16, ptr %17, align 2
  %28 = zext i16 %27 to i32
  %29 = icmp eq i32 %28, 61
  br i1 %29, label %31, label %30

30:                                               ; preds = %26, %10
  store i1 false, ptr %11, align 1
  store i32 1, ptr %23, align 4
  br label %46

31:                                               ; preds = %26
  %32 = load i32, ptr %19, align 4
  %33 = icmp ugt i32 %32, 0
  br i1 %33, label %34, label %35

34:                                               ; preds = %31
  store i1 false, ptr %11, align 1
  store i32 1, ptr %23, align 4
  br label %46

35:                                               ; preds = %31
  %36 = load ptr, ptr %18, align 8
  %37 = load i32, ptr %20, align 4
  %38 = call i32 @get_uint_parameter(ptr noundef %36, i32 noundef %37)
  store i32 %38, ptr %22, align 4
  %39 = load ptr, ptr %14, align 8
  %40 = load i32, ptr @hf_cmee, align 4
  %41 = load ptr, ptr %12, align 8
  %42 = load i32, ptr %15, align 4
  %43 = load i32, ptr %20, align 4
  %44 = load i32, ptr %22, align 4
  %45 = call ptr @proto_tree_add_uint(ptr noundef %39, i32 noundef %40, ptr noundef %41, i32 noundef %42, i32 noundef %43, i32 noundef %44)
  store i1 true, ptr %11, align 1
  store i32 1, ptr %23, align 4
  br label %46

46:                                               ; preds = %35, %34, %30
  call void @llvm.lifetime.end.p0(i64 4, ptr %22) #11
  %47 = load i1, ptr %11, align 1
  ret i1 %47
}