; Function Attrs: null_pointer_is_valid sspstrong uwtable
define internal noundef zeroext i1 @dissect_cmee_parameter(ptr noundef %0, ptr readnone captures(none) %1, ptr noundef %2, i32 noundef %3, i32 noundef %4, i16 noundef zeroext %5, ptr noundef readonly captures(none) %6, i32 noundef %7, i32 noundef %8, ptr readnone captures(none) %9) #0 {
  %11 = icmp eq i32 %4, 2
  %12 = icmp eq i16 %5, 61
  %or.cond = and i1 %11, %12
  %.not = icmp eq i32 %7, 0
  %or.cond12 = and i1 %or.cond, %.not
  br i1 %or.cond12, label %13, label %26

13:                                               ; preds = %10
  %14 = tail call ptr @wmem_packet_scope()
  %15 = add i32 %8, 1
  %16 = sext i32 %15 to i64
  %17 = tail call noalias ptr @wmem_alloc(ptr noundef %14, i64 noundef %16) #11
  %18 = sext i32 %8 to i64
  %19 = icmp ne i32 %15, -1
  tail call void @llvm.assume(i1 %19)
  %20 = tail call ptr @__memcpy_chk(ptr noundef %17, ptr noundef readonly %6, i64 noundef range(i64 -2147483648, 4294967296) %18, i64 noundef %16) #10, !alias.scope !149
  %21 = getelementptr i8, ptr %17, i64 %18
  store i8 0, ptr %21, align 1
  %22 = tail call i64 @g_ascii_strtoull(ptr noundef %17, ptr noundef null, i32 noundef 10)
  %23 = trunc i64 %22 to i32
  %24 = load i32, ptr @hf_cmee, align 4
  %25 = tail call ptr @proto_tree_add_uint(ptr noundef %2, i32 noundef %24, ptr noundef %0, i32 noundef %3, i32 noundef %8, i32 noundef %23)
  br label %26

26:                                               ; preds = %10, %13
  ret i1 %or.cond12
}